
u-boot-spl:     file format elf32-littlearm

Disassembly of section .text:

00000000 <_start>:
   0:	ea000014 	b	58 <reset>
   4:	e59ff014 	ldr	pc, [pc, #20]	; 20 <_undefined_instruction>
   8:	e59ff014 	ldr	pc, [pc, #20]	; 24 <_software_interrupt>
   c:	e59ff014 	ldr	pc, [pc, #20]	; 28 <_prefetch_abort>
  10:	e59ff014 	ldr	pc, [pc, #20]	; 2c <_data_abort>
  14:	e59ff014 	ldr	pc, [pc, #20]	; 30 <_not_used>
  18:	e59ff014 	ldr	pc, [pc, #20]	; 34 <_irq>
  1c:	e59ff014 	ldr	pc, [pc, #20]	; 38 <_fiq>

00000020 <_undefined_instruction>:
  20:	00000020 	.word	0x00000020

00000024 <_software_interrupt>:
  24:	00000024 	.word	0x00000024

00000028 <_prefetch_abort>:
  28:	00000028 	.word	0x00000028

0000002c <_data_abort>:
  2c:	0000002c 	.word	0x0000002c

00000030 <_not_used>:
  30:	00000030 	.word	0x00000030

00000034 <_irq>:
  34:	00000034 	.word	0x00000034

00000038 <_fiq>:
  38:	00000038 	.word	0x00000038

0000003c <_pad>:
  3c:	12345678 	.word	0x12345678

00000040 <_TEXT_BASE>:
  40:	23e00000 	.word	0x23e00000

00000044 <_bss_start_ofs>:
  44:	00000d80 	.word	0x00000d80

00000048 <_image_copy_end_ofs>:
  48:	00000d80 	.word	0x00000d80

0000004c <_bss_end_ofs>:
  4c:	00000d80 	.word	0x00000d80

00000050 <_end_ofs>:
  50:	00000d80 	.word	0x00000d80

00000054 <IRQ_STACK_START_IN>:
  54:	0badc0de 	.word	0x0badc0de

00000058 <reset>:
  58:	e59f01a8 	ldr	r0, [pc, #424]	; 208 <cpu_init_crit+0x44>
  5c:	e5901280 	ldr	r1, [r0, #640]
  60:	e59f21a4 	ldr	r2, [pc, #420]	; 20c <cpu_init_crit+0x48>
  64:	e0011002 	and	r1, r1, r2
  68:	e59f21a0 	ldr	r2, [pc, #416]	; 210 <cpu_init_crit+0x4c>
  6c:	e1811002 	orr	r1, r1, r2
  70:	e5801280 	str	r1, [r0, #640]
  74:	e5901284 	ldr	r1, [r0, #644]
  78:	e3a02001 	mov	r2, #1	; 0x1
  7c:	e5c02284 	strb	r2, [r0, #644]
  80:	eb0002ec 	bl	c38 <save_boot_params>
  84:	e10f0000 	mrs	r0, CPSR
  88:	e3c0001f 	bic	r0, r0, #31	; 0x1f
  8c:	e38000d3 	orr	r0, r0, #211	; 0xd3
  90:	e129f000 	msr	CPSR_fc, r0
  94:	eb00004a 	bl	1c4 <cpu_init_crit>

00000098 <call_board_init_f>:
  98:	e59fd174 	ldr	sp, [pc, #372]	; 214 <cpu_init_crit+0x50>
  9c:	e3cdd007 	bic	sp, sp, #7	; 0x7
  a0:	e3a00000 	mov	r0, #0	; 0x0
  a4:	e24f40ac 	sub	r4, pc, #172	; 0xac
  a8:	e51f5070 	ldr	r5, [pc, #-112]	; 40 <_TEXT_BASE>
  ac:	e1550004 	cmp	r5, r4
  b0:	0a00001e 	beq	130 <board_init_in_ram>
  b4:	e3a0020e 	mov	r0, #-536870912	; 0xe0000000
  b8:	e5901004 	ldr	r1, [r0, #4]
  bc:	e201203e 	and	r2, r1, #62	; 0x3e
  c0:	e3520000 	cmp	r2, #0	; 0x0
  c4:	03a03002 	moveq	r3, #2	; 0x2
  c8:	e3520002 	cmp	r2, #2	; 0x2
  cc:	03a03002 	moveq	r3, #2	; 0x2
  d0:	e3520004 	cmp	r2, #4	; 0x4
  d4:	03a03002 	moveq	r3, #2	; 0x2
  d8:	e3520006 	cmp	r2, #6	; 0x6
  dc:	03a03002 	moveq	r3, #2	; 0x2
  e0:	e3520008 	cmp	r2, #8	; 0x8
  e4:	03a03001 	moveq	r3, #1	; 0x1
  e8:	e352000c 	cmp	r2, #12	; 0xc
  ec:	03a03003 	moveq	r3, #3	; 0x3
  f0:	e3520014 	cmp	r2, #20	; 0x14
  f4:	03a03004 	moveq	r3, #4	; 0x4
  f8:	e3520010 	cmp	r2, #16	; 0x10
  fc:	03a03005 	moveq	r3, #5	; 0x5
 100:	e59f0110 	ldr	r0, [pc, #272]	; 218 <cpu_init_crit+0x54>
 104:	e580300c 	str	r3, [r0, #12]
 108:	e590100c 	ldr	r1, [r0, #12]
 10c:	e3510002 	cmp	r1, #2	; 0x2
 110:	0a000001 	beq	11c <nand_boot_210>
 114:	e3510003 	cmp	r1, #3	; 0x3
 118:	0a000000 	beq	120 <mmcsd_boot_210>

0000011c <nand_boot_210>:
 11c:	eb000313 	.word	0xeb000313

00000120 <mmcsd_boot_210>:
 120:	e59f00e0 	.word	0xe59f00e0
 124:	e3a02009 	.word	0xe3a02009
 128:	e5802284 	.word	0xe5802284
 12c:	eb0002bc 	.word	0xeb0002bc

00000130 <board_init_in_ram>:
 130:	e59f00d0 	.word	0xe59f00d0
 134:	e3a02003 	.word	0xe3a02003
 138:	e5c02284 	.word	0xe5c02284
 13c:	eb0002b8 	.word	0xeb0002b8

00000140 <relocate_code>:
 140:	e1a04000 	.word	0xe1a04000
 144:	e1a05001 	.word	0xe1a05001
 148:	e1a06002 	.word	0xe1a06002

0000014c <stack_setup>:
 14c:	e1a0d004 	.word	0xe1a0d004
 150:	e24f0f56 	.word	0xe24f0f56
 154:	e1500006 	.word	0xe1500006
 158:	03a09000 	.word	0x03a09000
 15c:	0a000006 	.word	0x0a000006
 160:	e1a01006 	.word	0xe1a01006
 164:	e51f3124 	.word	0xe51f3124
 168:	e0802003 	.word	0xe0802003

0000016c <copy_loop>:
 16c:	e8b00600 	.word	0xe8b00600
 170:	e8a10600 	.word	0xe8a10600
 174:	e1500002 	.word	0xe1500002
 178:	3afffffb 	.word	0x3afffffb

0000017c <clear_bss>:
 17c:	e59f0098 	.word	0xe59f0098
 180:	e59f1098 	.word	0xe59f1098
 184:	e3a02000 	.word	0xe3a02000

00000188 <clbss_l>:
 188:	e5802000 	.word	0xe5802000
 18c:	e2800004 	.word	0xe2800004
 190:	e1500001 	.word	0xe1500001
 194:	1afffffb 	.word	0x1afffffb

00000198 <jump_2_ram>:
 198:	ee070f15 	.word	0xee070f15
 19c:	ee070f9a 	.word	0xee070f9a
 1a0:	ee070f95 	.word	0xee070f95
 1a4:	e59f0014 	.word	0xe59f0014
 1a8:	e24f1e1b 	.word	0xe24f1e1b
 1ac:	e080e001 	.word	0xe080e001
 1b0:	e08ee009 	.word	0xe08ee009
 1b4:	e1a00005 	.word	0xe1a00005
 1b8:	e1a01006 	.word	0xe1a01006
 1bc:	e1a0f00e 	.word	0xe1a0f00e

000001c0 <_board_init_r_ofs>:
 1c0:	00000c34 	.word	0x00000c34

000001c4 <cpu_init_crit>:
 1c4:	e3a00000 	mov	r0, #0	; 0x0
 1c8:	ee080f17 	mcr	15, 0, r0, cr8, cr7, {0}
 1cc:	ee070f15 	mcr	15, 0, r0, cr7, cr5, {0}
 1d0:	ee070fd5 	mcr	15, 0, r0, cr7, cr5, {6}
 1d4:	ee070f9a 	mcr	15, 0, r0, cr7, cr10, {4}
 1d8:	ee070f95 	mcr	15, 0, r0, cr7, cr5, {4}
 1dc:	ee110f10 	mrc	15, 0, r0, cr1, cr0, {0}
 1e0:	e3c00a02 	bic	r0, r0, #8192	; 0x2000
 1e4:	e3c00007 	bic	r0, r0, #7	; 0x7
 1e8:	e3800002 	orr	r0, r0, #2	; 0x2
 1ec:	e3800b02 	orr	r0, r0, #2048	; 0x800
 1f0:	e3800a01 	orr	r0, r0, #4096	; 0x1000
 1f4:	ee010f10 	mcr	15, 0, r0, cr1, cr0, {0}
 1f8:	e1a0c00e 	mov	ip, lr
 1fc:	eb00000c 	bl	234 <lowlevel_init>
 200:	e1a0e00c 	mov	lr, ip
 204:	e1a0f00e 	mov	pc, lr
 208:	e0200000 	.word	0xe0200000
 20c:	ffff0000 	.word	0xffff0000
 210:	00001111 	.word	0x00001111
 214:	20ffff80 	.word	0x20ffff80
 218:	e010f000 	.word	0xe010f000
 21c:	00000d80 	.word	0x00000d80
 220:	00000d80 	.word	0x00000d80
 224:	e1a00000 	.word	0xe1a00000
 228:	e1a00000 	.word	0xe1a00000
 22c:	e1a00000 	.word	0xe1a00000

00000230 <_TEXT_BASE>:
 230:	23e00000 	.word	0x23e00000

00000234 <lowlevel_init>:
 234:	e92d4000 	push	{lr}
 238:	e59f0384 	ldr	r0, [pc, #900]	; 5c4 <wait_orwb+0x38>
 23c:	e5901000 	ldr	r1, [r0]
 240:	e2011809 	and	r1, r1, #589824	; 0x90000
 244:	e3510801 	cmp	r1, #65536	; 0x10000
 248:	0a000040 	beq	350 <wakeup_reset_pre>
 24c:	e3510702 	cmp	r1, #524288	; 0x80000
 250:	0a000038 	beq	338 <wakeup_reset_from_didle>
 254:	e59f036c 	ldr	r0, [pc, #876]	; 5c8 <wait_orwb+0x3c>
 258:	e5901000 	ldr	r1, [r0]
 25c:	e3a0220b 	mov	r2, #-1342177280	; 0xb0000000
 260:	e1811002 	orr	r1, r1, r2
 264:	e5801000 	str	r1, [r0]
 268:	e59f035c 	ldr	r0, [pc, #860]	; 5cc <wait_orwb+0x40>
 26c:	e3a01000 	mov	r1, #0	; 0x0
 270:	e5801000 	str	r1, [r0]
 274:	e59f0354 	ldr	r0, [pc, #852]	; 5d0 <wait_orwb+0x44>
 278:	e5901260 	ldr	r1, [r0, #608]
 27c:	e20114ff 	and	r1, r1, #-16777216	; 0xff000000
 280:	e59f234c 	ldr	r2, [pc, #844]	; 5d4 <wait_orwb+0x48>
 284:	e1811002 	orr	r1, r1, r2
 288:	e5801260 	str	r1, [r0, #608]
 28c:	e5901268 	ldr	r1, [r0, #616]
 290:	e59f2340 	ldr	r2, [pc, #832]	; 5d8 <wait_orwb+0x4c>
 294:	e1c11002 	bic	r1, r1, r2
 298:	e5801268 	str	r1, [r0, #616]
 29c:	e59012c0 	ldr	r1, [r0, #704]
 2a0:	e3c1180f 	bic	r1, r1, #983040	; 0xf0000
 2a4:	e3a02701 	mov	r2, #262144	; 0x40000
 2a8:	e1811002 	orr	r1, r1, r2
 2ac:	e58012c0 	str	r1, [r0, #704]
 2b0:	e59012c8 	ldr	r1, [r0, #712]
 2b4:	e3a02c03 	mov	r2, #768	; 0x300
 2b8:	e1c11002 	bic	r1, r1, r2
 2bc:	e58012c8 	str	r1, [r0, #712]
 2c0:	e3a0033a 	mov	r0, #-402653184	; 0xe8000000
 2c4:	e3a01001 	mov	r1, #1	; 0x1
 2c8:	e5801000 	str	r1, [r0]
 2cc:	e59f0308 	ldr	r0, [pc, #776]	; 5dc <wait_orwb+0x50>
 2d0:	e5901000 	ldr	r1, [r0]
 2d4:	e3811c03 	orr	r1, r1, #768	; 0x300
 2d8:	e3811001 	orr	r1, r1, #1	; 0x1
 2dc:	e5801000 	str	r1, [r0]
 2e0:	e3e004ff 	mvn	r0, #-16777216	; 0xff000000
 2e4:	e1cf1000 	bic	r1, pc, r0
 2e8:	e51f20c0 	ldr	r2, [pc, #-192]	; 230 <_TEXT_BASE>
 2ec:	e1c22000 	bic	r2, r2, r0
 2f0:	e1510002 	cmp	r1, r2
 2f4:	0a000001 	beq	300 <lowlevel_init+0xcc>
 2f8:	eb000023 	bl	38c <system_clock_init>
 2fc:	eb0000d7 	bl	660 <mem_ctrl_asm_init>
 300:	eb000045 	bl	41c <uart_asm_init>
 304:	eb00007e 	bl	504 <tzpc_init>
 308:	e59f02b4 	ldr	r0, [pc, #692]	; 5c4 <wait_orwb+0x38>
 30c:	e5901000 	ldr	r1, [r0]
 310:	e2011801 	and	r1, r1, #65536	; 0x10000
 314:	e3510801 	cmp	r1, #65536	; 0x10000
 318:	0a00000c 	beq	350 <wakeup_reset_pre>
 31c:	e59f02bc 	ldr	r0, [pc, #700]	; 5e0 <wait_orwb+0x54>
 320:	e3811502 	orr	r1, r1, #8388608	; 0x800000
 324:	e5801000 	str	r1, [r0]
 328:	e59f02b4 	ldr	r0, [pc, #692]	; 5e4 <wait_orwb+0x58>
 32c:	e59f12b4 	ldr	r1, [pc, #692]	; 5e8 <wait_orwb+0x5c>
 330:	e5801020 	str	r1, [r0, #32]
 334:	e8bd8000 	pop	{pc}

00000338 <wakeup_reset_from_didle>:
 338:	e59f02ac 	ldr	r0, [pc, #684]	; 5ec <wait_orwb+0x60>

0000033c <lockloop>:
 33c:	e5901100 	ldr	r1, [r0, #256]
 340:	e2011202 	and	r1, r1, #536870912	; 0x20000000
 344:	e3510202 	cmp	r1, #536870912	; 0x20000000
 348:	1afffffb 	bne	33c <lockloop>
 34c:	0a000009 	beq	378 <exit_wakeup>

00000350 <wakeup_reset_pre>:
 350:	ee111f30 	mrc	15, 0, r1, cr1, cr0, {1}
 354:	e2011102 	and	r1, r1, #-2147483648	; 0x80000000
 358:	e3510102 	cmp	r1, #-2147483648	; 0x80000000
 35c:	1a000002 	bne	36c <wakeup_reset>
 360:	eb0001ee 	bl	b20 <disable_l2cache>
 364:	eb0001c5 	bl	a80 <v7_flush_dcache_all>
 368:	eb0001f4 	bl	b40 <enable_l2cache>

0000036c <wakeup_reset>:
 36c:	eb000006 	bl	38c <system_clock_init>
 370:	eb0000ba 	bl	660 <mem_ctrl_asm_init>
 374:	eb000062 	bl	504 <tzpc_init>

00000378 <exit_wakeup>:
 378:	e59f0270 	ldr	r0, [pc, #624]	; 5f0 <wait_orwb+0x64>
 37c:	e5901000 	ldr	r1, [r0]
 380:	e1a0f001 	mov	pc, r1
 384:	e1a00000 	nop			(mov r0,r0)
 388:	e1a00000 	nop			(mov r0,r0)

0000038c <system_clock_init>:
 38c:	e59f0258 	ldr	r0, [pc, #600]	; 5ec <wait_orwb+0x60>
 390:	e3a01000 	mov	r1, #0	; 0x0
 394:	e5801200 	str	r1, [r0, #512]
 398:	e59f1254 	ldr	r1, [pc, #596]	; 5f4 <wait_orwb+0x68>
 39c:	e5801000 	str	r1, [r0]
 3a0:	e3a01000 	mov	r1, #0	; 0x0
 3a4:	e5801100 	str	r1, [r0, #256]
 3a8:	e3a01000 	mov	r1, #0	; 0x0
 3ac:	e5801108 	str	r1, [r0, #264]
 3b0:	e3a01000 	mov	r1, #0	; 0x0
 3b4:	e5801108 	str	r1, [r0, #264]
 3b8:	e5901300 	ldr	r1, [r0, #768]
 3bc:	e3e02102 	mvn	r2, #-2147483648	; 0x80000000
 3c0:	e1c11002 	bic	r1, r1, r2
 3c4:	e59f222c 	ldr	r2, [pc, #556]	; 5f8 <wait_orwb+0x6c>
 3c8:	e1811002 	orr	r1, r1, r2
 3cc:	e5801300 	str	r1, [r0, #768]
 3d0:	e59f1224 	ldr	r1, [pc, #548]	; 5fc <wait_orwb+0x70>
 3d4:	e5801100 	str	r1, [r0, #256]
 3d8:	e59f1220 	ldr	r1, [pc, #544]	; 600 <wait_orwb+0x74>
 3dc:	e5801108 	str	r1, [r0, #264]
 3e0:	e59f121c 	ldr	r1, [pc, #540]	; 604 <wait_orwb+0x78>
 3e4:	e5801120 	str	r1, [r0, #288]
 3e8:	e3a01000 	mov	r1, #0	; 0x0
 3ec:	e5801104 	str	r1, [r0, #260]
 3f0:	e3a01801 	mov	r1, #65536	; 0x10000
 3f4:	e2511001 	subs	r1, r1, #1	; 0x1
 3f8:	1afffffd 	bne	3f4 <system_clock_init+0x68>
 3fc:	e5901200 	ldr	r1, [r0, #512]
 400:	e59f2200 	ldr	r2, [pc, #512]	; 608 <wait_orwb+0x7c>
 404:	e1811002 	orr	r1, r1, r2
 408:	e5801200 	str	r1, [r0, #512]
 40c:	e5901318 	ldr	r1, [r0, #792]
 410:	e3c11a07 	bic	r1, r1, #28672	; 0x7000
 414:	e5801318 	str	r1, [r0, #792]
 418:	e1a0f00e 	mov	pc, lr

0000041c <uart_asm_init>:
 41c:	e59f01ac 	ldr	r0, [pc, #428]	; 5d0 <wait_orwb+0x44>
 420:	e59f11e4 	ldr	r1, [pc, #484]	; 60c <wait_orwb+0x80>
 424:	e5801000 	str	r1, [r0]
 428:	e59f11e0 	ldr	r1, [pc, #480]	; 610 <wait_orwb+0x84>
 42c:	e5801020 	str	r1, [r0, #32]
 430:	e59f01ac 	ldr	r0, [pc, #428]	; 5e4 <wait_orwb+0x58>
 434:	e3a01000 	mov	r1, #0	; 0x0
 438:	e5801008 	str	r1, [r0, #8]
 43c:	e580100c 	str	r1, [r0, #12]
 440:	e3a01003 	mov	r1, #3	; 0x3
 444:	e5801000 	str	r1, [r0]
 448:	e59f11c4 	ldr	r1, [pc, #452]	; 614 <wait_orwb+0x88>
 44c:	e5801004 	str	r1, [r0, #4]
 450:	e3a01022 	mov	r1, #34	; 0x22
 454:	e5801028 	str	r1, [r0, #40]
 458:	e59f11b8 	ldr	r1, [pc, #440]	; 618 <wait_orwb+0x8c>
 45c:	e580102c 	str	r1, [r0, #44]
 460:	e59f11b4 	ldr	r1, [pc, #436]	; 61c <wait_orwb+0x90>
 464:	e5801020 	str	r1, [r0, #32]
 468:	e1a0f00e 	mov	pc, lr

0000046c <nand_asm_init>:
 46c:	e59f015c 	.word	0xe59f015c
 470:	e59012e0 	.word	0xe59012e0
 474:	e3c11c0f 	.word	0xe3c11c0f
 478:	e3811c03 	.word	0xe3811c03
 47c:	e58012e0 	.word	0xe58012e0
 480:	12e8      	.short	0x12e8
 482:	90          	.byte	0x90
 483:	e5          	.byte	0xe5
 484:	e3c11030 	.word	0xe3c11030
 488:	e58012e8 	.word	0xe58012e8
 48c:	e5901320 	.word	0xe5901320
 490:	e20114ff 	.word	0xe20114ff
 494:	e59f2170 	.word	0xe59f2170
 498:	e1811002 	.word	0xe1811002
 49c:	e5801320 	.word	0xe5801320
 4a0:	e5901328 	.word	0xe5901328
 4a4:	e59f2174 	.word	0xe59f2174
 4a8:	e1c11002 	.word	0xe1c11002
 4ac:	e5801328 	.word	0xe5801328
 4b0:	e59f016c 	.word	0xe59f016c
 4b4:	e5901000 	.word	0xe5901000
 4b8:	e59f2168 	.word	0xe59f2168
 4bc:	e1c11002 	.word	0xe1c11002
 4c0:	e59f2164 	.word	0xe59f2164
 4c4:	e1811002 	.word	0xe1811002
 4c8:	e5801000 	.word	0xe5801000
 4cc:	e5901004 	.word	0xe5901004
 4d0:	e59f2158 	.word	0xe59f2158
 4d4:	e1c11002 	.word	0xe1c11002
 4d8:	e59f2154 	.word	0xe59f2154
 4dc:	e1811002 	.word	0xe1811002
 4e0:	e5801004 	.word	0xe5801004
 4e4:	e5901000 	.word	0xe5901000
 4e8:	e3811070 	.word	0xe3811070
 4ec:	e3811c77 	.word	0xe3811c77
 4f0:	e5801000 	.word	0xe5801000
 4f4:	e5901004 	.word	0xe5901004
 4f8:	e3811003 	.word	0xe3811003
 4fc:	e5801004 	.word	0xe5801004
 500:	e1a0f00e 	.word	0xe1a0f00e

00000504 <tzpc_init>:
 504:	e59f012c 	.word	0xe59f012c
 508:	e3a01000 	.word	0xe3a01000
 50c:	e5801000 	.word	0xe5801000
 510:	e3a010ff 	.word	0xe3a010ff
 514:	e5801804 	.word	0xe5801804
 518:	1810      	.short	0x1810
 51a:	80          	.byte	0x80
 51b:	e5          	.byte	0xe5
 51c:	e580181c 	.word	0xe580181c
 520:	e59f0114 	.word	0xe59f0114
 524:	e5801804 	.word	0xe5801804
 528:	e5801810 	.word	0xe5801810
 52c:	e580181c 	.word	0xe580181c
 530:	e59f0108 	.word	0xe59f0108
 534:	e5801804 	.word	0xe5801804
 538:	e5801810 	.word	0xe5801810
 53c:	e580181c 	.word	0xe580181c
 540:	e5801828 	.word	0xe5801828
 544:	e59f00f8 	.word	0xe59f00f8
 548:	e5801804 	.word	0xe5801804
 54c:	e5801810 	.word	0xe5801810
 550:	e580181c 	.word	0xe580181c
 554:	e1a0f00e 	.word	0xe1a0f00e

00000558 <onenandcon_init>:
 558:	e59f0070 	.word	0xe59f0070
 55c:	e59012e0 	.word	0xe59012e0
 560:	e3811855 	.word	0xe3811855
 564:	e58012e0 	.word	0xe58012e0
 568:	e5901320 	.word	0xe5901320
 56c:	e3811e55 	.word	0xe3811e55
 570:	e3811855 	.word	0xe3811855
 574:	e5801320 	.word	0xe5801320
 578:	e59f10c8 	.word	0xe59f10c8
 57c:	e58012ec 	.word	0xe58012ec
 580:	e580132c 	.word	0xe580132c
 584:	e580138c 	.word	0xe580138c
 588:	e58013ac 	.word	0xe58013ac

0000058c <wait_orwb>:
 58c:	e59f00b8 	.word	0xe59f00b8
 590:	e590110c 	.word	0xe590110c
 594:	e2011001 	.word	0xe2011001
 598:	e3510000 	.word	0xe3510000
 59c:	1afffffa 	.word	0x1afffffa
 5a0:	e59f10a8 	.word	0xe59f10a8
 5a4:	e59f20a8 	.word	0xe59f20a8
 5a8:	e1c210b0 	.word	0xe1c210b0
 5ac:	e1d210b0 	.word	0xe1d210b0
 5b0:	e1d210b0 	.word	0xe1d210b0
 5b4:	e59f0090 	.word	0xe59f0090
 5b8:	e59f1098 	.word	0xe59f1098
 5bc:	e5801100 	.word	0xe5801100
 5c0:	e1a0f00e 	.word	0xe1a0f00e
 5c4:	e010a000 	.word	0xe010a000
 5c8:	e010e000 	.word	0xe010e000
 5cc:	e2700000 	.word	0xe2700000
 5d0:	e0200000 	.word	0xe0200000
 5d4:	00444444 	.word	0x00444444
 5d8:	000003ff 	.word	0x000003ff
 5dc:	e010e81c 	.word	0xe010e81c
 5e0:	e010c300 	.word	0xe010c300
 5e4:	e2900c00 	.word	0xe2900c00
 5e8:	4b4b4b4b 	.word	0x4b4b4b4b
 5ec:	e0100000 	.word	0xe0100000
 5f0:	e010f000 	.word	0xe010f000
 5f4:	000002cf 	.word	0x000002cf
 5f8:	14131440 	.word	0x14131440
 5fc:	807d0301 	.word	0x807d0301
 600:	829b0c01 	.word	0x829b0c01
 604:	806c0603 	.word	0x806c0603
 608:	10001111 	.word	0x10001111
 60c:	22222222 	.word	0x22222222
 610:	00002222 	.word	0x00002222
 614:	000003c5 	.word	0x000003c5
 618:	0000dddd 	.word	0x0000dddd
 61c:	4f4f4f4f 	.word	0x4f4f4f4f
 620:	00003fff 	.word	0x00003fff
 624:	b0e00000 	.word	0xb0e00000
 628:	0000777f 	.word	0x0000777f
 62c:	00007772 	.word	0x00007772
 630:	000707c7 	.word	0x000707c7
 634:	00c00005 	.word	0x00c00005
 638:	f1500000 	.word	0xf1500000
 63c:	fad00000 	.word	0xfad00000
 640:	e0600000 	.word	0xe0600000
 644:	e1c00000 	.word	0xe1c00000
 648:	0000ffff 	.word	0x0000ffff
 64c:	b0600000 	.word	0xb0600000
 650:	0000f006 	.word	0x0000f006
 654:	b001e442 	.word	0xb001e442
 658:	0402f006 	.word	0x0402f006
 65c:	00000000 	.word	0x00000000

00000660 <mem_ctrl_asm_init>:
 660:	e59f0398 	ldr	r0, [pc, #920]	; a00 <cleanFlushCache+0x10>
 664:	e59f1398 	ldr	r1, [pc, #920]	; a04 <cleanFlushCache+0x14>
 668:	e58013cc 	str	r1, [r0, #972]
 66c:	e59f1390 	ldr	r1, [pc, #912]	; a04 <cleanFlushCache+0x14>
 670:	e58013ec 	str	r1, [r0, #1004]
 674:	e59f1388 	ldr	r1, [pc, #904]	; a04 <cleanFlushCache+0x14>
 678:	e580140c 	str	r1, [r0, #1036]
 67c:	e59f1380 	ldr	r1, [pc, #896]	; a04 <cleanFlushCache+0x14>
 680:	e580142c 	str	r1, [r0, #1068]
 684:	e59f1378 	ldr	r1, [pc, #888]	; a04 <cleanFlushCache+0x14>
 688:	e580144c 	str	r1, [r0, #1100]
 68c:	e59f1370 	ldr	r1, [pc, #880]	; a04 <cleanFlushCache+0x14>
 690:	e580146c 	str	r1, [r0, #1132]
 694:	e59f1368 	ldr	r1, [pc, #872]	; a04 <cleanFlushCache+0x14>
 698:	e580148c 	str	r1, [r0, #1164]
 69c:	e59f1360 	ldr	r1, [pc, #864]	; a04 <cleanFlushCache+0x14>
 6a0:	e58014ac 	str	r1, [r0, #1196]
 6a4:	e59f135c 	ldr	r1, [pc, #860]	; a08 <cleanFlushCache+0x18>
 6a8:	e58014cc 	str	r1, [r0, #1228]
 6ac:	e59f034c 	ldr	r0, [pc, #844]	; a00 <cleanFlushCache+0x10>
 6b0:	e59f134c 	ldr	r1, [pc, #844]	; a04 <cleanFlushCache+0x14>
 6b4:	e58014ec 	str	r1, [r0, #1260]
 6b8:	e59f1344 	ldr	r1, [pc, #836]	; a04 <cleanFlushCache+0x14>
 6bc:	e580150c 	str	r1, [r0, #1292]
 6c0:	e59f133c 	ldr	r1, [pc, #828]	; a04 <cleanFlushCache+0x14>
 6c4:	e580152c 	str	r1, [r0, #1324]
 6c8:	e59f1334 	ldr	r1, [pc, #820]	; a04 <cleanFlushCache+0x14>
 6cc:	e580154c 	str	r1, [r0, #1356]
 6d0:	e59f132c 	ldr	r1, [pc, #812]	; a04 <cleanFlushCache+0x14>
 6d4:	e580156c 	str	r1, [r0, #1388]
 6d8:	e59f1324 	ldr	r1, [pc, #804]	; a04 <cleanFlushCache+0x14>
 6dc:	e580158c 	str	r1, [r0, #1420]
 6e0:	e59f131c 	ldr	r1, [pc, #796]	; a04 <cleanFlushCache+0x14>
 6e4:	e58015ac 	str	r1, [r0, #1452]
 6e8:	e59f1314 	ldr	r1, [pc, #788]	; a04 <cleanFlushCache+0x14>
 6ec:	e58015cc 	str	r1, [r0, #1484]
 6f0:	e59f1310 	ldr	r1, [pc, #784]	; a08 <cleanFlushCache+0x18>
 6f4:	e58015ec 	str	r1, [r0, #1516]
 6f8:	e3a0020f 	mov	r0, #-268435456	; 0xf0000000
 6fc:	e59f1308 	ldr	r1, [pc, #776]	; a0c <cleanFlushCache+0x1c>
 700:	e5801018 	str	r1, [r0, #24]
 704:	e3a01086 	mov	r1, #134	; 0x86
 708:	e580101c 	str	r1, [r0, #28]
 70c:	e59f12fc 	ldr	r1, [pc, #764]	; a10 <cleanFlushCache+0x20>
 710:	e5801018 	str	r1, [r0, #24]
 714:	e59f12f8 	ldr	r1, [pc, #760]	; a14 <cleanFlushCache+0x24>
 718:	e5801018 	str	r1, [r0, #24]

0000071c <find_lock_val>:
 71c:	e5901040 	ldr	r1, [r0, #64]
 720:	e2012007 	and	r2, r1, #7	; 0x7
 724:	e3520007 	cmp	r2, #7	; 0x7
 728:	1afffffb 	bne	71c <find_lock_val>
 72c:	e2011dff 	and	r1, r1, #16320	; 0x3fc0
 730:	e1a02901 	lsl	r2, r1, #18
 734:	e3822601 	orr	r2, r2, #1048576	; 0x100000
 738:	e3822a01 	orr	r2, r2, #4096	; 0x1000
 73c:	e3821003 	orr	r1, r2, #3	; 0x3
 740:	e5801018 	str	r1, [r0, #24]
 744:	e59f12cc 	ldr	r1, [pc, #716]	; a18 <cleanFlushCache+0x28>
 748:	e5801000 	str	r1, [r0]
 74c:	e59f12c8 	ldr	r1, [pc, #712]	; a1c <cleanFlushCache+0x2c>
 750:	e5801004 	str	r1, [r0, #4]
 754:	e59f12c4 	ldr	r1, [pc, #708]	; a20 <cleanFlushCache+0x30>
 758:	e5801008 	str	r1, [r0, #8]
 75c:	e59f12c0 	ldr	r1, [pc, #704]	; a24 <cleanFlushCache+0x34>
 760:	e580100c 	str	r1, [r0, #12]
 764:	e3a014ff 	mov	r1, #-16777216	; 0xff000000
 768:	e5801014 	str	r1, [r0, #20]
 76c:	e59f12b4 	ldr	r1, [pc, #692]	; a28 <cleanFlushCache+0x38>
 770:	e5801030 	str	r1, [r0, #48]
 774:	e59f12b0 	ldr	r1, [pc, #688]	; a2c <cleanFlushCache+0x3c>
 778:	e5801034 	str	r1, [r0, #52]
 77c:	e59f12ac 	ldr	r1, [pc, #684]	; a30 <cleanFlushCache+0x40>
 780:	e5801038 	str	r1, [r0, #56]
 784:	e59f12a8 	ldr	r1, [pc, #680]	; a34 <cleanFlushCache+0x44>
 788:	e580103c 	str	r1, [r0, #60]
 78c:	e3a01407 	mov	r1, #117440512	; 0x7000000
 790:	e5801010 	str	r1, [r0, #16]
 794:	e3a01401 	mov	r1, #16777216	; 0x1000000
 798:	e5801010 	str	r1, [r0, #16]
 79c:	e3a01802 	mov	r1, #131072	; 0x20000
 7a0:	e5801010 	str	r1, [r0, #16]
 7a4:	e3a01803 	mov	r1, #196608	; 0x30000
 7a8:	e5801010 	str	r1, [r0, #16]
 7ac:	e3a01b41 	mov	r1, #66560	; 0x10400
 7b0:	e5801010 	str	r1, [r0, #16]
 7b4:	e59f127c 	ldr	r1, [pc, #636]	; a38 <cleanFlushCache+0x48>
 7b8:	e5801010 	str	r1, [r0, #16]
 7bc:	e3a01401 	mov	r1, #16777216	; 0x1000000
 7c0:	e5801010 	str	r1, [r0, #16]
 7c4:	e3a01405 	mov	r1, #83886080	; 0x5000000
 7c8:	e5801010 	str	r1, [r0, #16]
 7cc:	e3a01405 	mov	r1, #83886080	; 0x5000000
 7d0:	e5801010 	str	r1, [r0, #16]
 7d4:	e59f1260 	ldr	r1, [pc, #608]	; a3c <cleanFlushCache+0x4c>
 7d8:	e5801010 	str	r1, [r0, #16]
 7dc:	e59f125c 	ldr	r1, [pc, #604]	; a40 <cleanFlushCache+0x50>
 7e0:	e5801010 	str	r1, [r0, #16]
 7e4:	e3a01b41 	mov	r1, #66560	; 0x10400
 7e8:	e5801010 	str	r1, [r0, #16]
 7ec:	e3a01671 	mov	r1, #118489088	; 0x7100000
 7f0:	e5801010 	str	r1, [r0, #16]
 7f4:	e3a01611 	mov	r1, #17825792	; 0x1100000
 7f8:	e5801010 	str	r1, [r0, #16]
 7fc:	e3a01812 	mov	r1, #1179648	; 0x120000
 800:	e5801010 	str	r1, [r0, #16]
 804:	e3a01813 	mov	r1, #1245184	; 0x130000
 808:	e5801010 	str	r1, [r0, #16]
 80c:	e59f1230 	ldr	r1, [pc, #560]	; a44 <cleanFlushCache+0x54>
 810:	e5801010 	str	r1, [r0, #16]
 814:	e59f122c 	ldr	r1, [pc, #556]	; a48 <cleanFlushCache+0x58>
 818:	e5801010 	str	r1, [r0, #16]
 81c:	e3a01611 	mov	r1, #17825792	; 0x1100000
 820:	e5801010 	str	r1, [r0, #16]
 824:	e3a01651 	mov	r1, #84934656	; 0x5100000
 828:	e5801010 	str	r1, [r0, #16]
 82c:	e3a01651 	mov	r1, #84934656	; 0x5100000
 830:	e5801010 	str	r1, [r0, #16]
 834:	e59f1210 	ldr	r1, [pc, #528]	; a4c <cleanFlushCache+0x5c>
 838:	e5801010 	str	r1, [r0, #16]
 83c:	e59f120c 	ldr	r1, [pc, #524]	; a50 <cleanFlushCache+0x60>
 840:	e5801010 	str	r1, [r0, #16]
 844:	e59f11f8 	ldr	r1, [pc, #504]	; a44 <cleanFlushCache+0x54>
 848:	e5801010 	str	r1, [r0, #16]
 84c:	e59f1200 	ldr	r1, [pc, #512]	; a54 <cleanFlushCache+0x64>
 850:	e5801000 	str	r1, [r0]
 854:	e3e01cff 	mvn	r1, #65280	; 0xff00
 858:	e5801028 	str	r1, [r0, #40]
 85c:	e59f11b8 	ldr	r1, [pc, #440]	; a1c <cleanFlushCache+0x2c>
 860:	e5801004 	str	r1, [r0, #4]
 864:	e59f01ec 	ldr	r0, [pc, #492]	; a58 <cleanFlushCache+0x68>
 868:	e59f119c 	ldr	r1, [pc, #412]	; a0c <cleanFlushCache+0x1c>
 86c:	e5801018 	str	r1, [r0, #24]
 870:	e3a01086 	mov	r1, #134	; 0x86
 874:	e580101c 	str	r1, [r0, #28]
 878:	e59f1190 	ldr	r1, [pc, #400]	; a10 <cleanFlushCache+0x20>
 87c:	e5801018 	str	r1, [r0, #24]
 880:	e59f118c 	ldr	r1, [pc, #396]	; a14 <cleanFlushCache+0x24>
 884:	e5801018 	str	r1, [r0, #24]

00000888 <find_lock_val1>:
 888:	e5901040 	ldr	r1, [r0, #64]
 88c:	e2012007 	and	r2, r1, #7	; 0x7
 890:	e3520007 	cmp	r2, #7	; 0x7
 894:	1afffffb 	bne	888 <find_lock_val1>
 898:	e2011dff 	and	r1, r1, #16320	; 0x3fc0
 89c:	e1a02901 	lsl	r2, r1, #18
 8a0:	e3822601 	orr	r2, r2, #1048576	; 0x100000
 8a4:	e3822a01 	orr	r2, r2, #4096	; 0x1000
 8a8:	e3821003 	orr	r1, r2, #3	; 0x3
 8ac:	e5801018 	str	r1, [r0, #24]
 8b0:	e59f01a0 	ldr	r0, [pc, #416]	; a58 <cleanFlushCache+0x68>
 8b4:	e59f115c 	ldr	r1, [pc, #348]	; a18 <cleanFlushCache+0x28>
 8b8:	e5801000 	str	r1, [r0]
 8bc:	e59f1158 	ldr	r1, [pc, #344]	; a1c <cleanFlushCache+0x2c>
 8c0:	e5801004 	str	r1, [r0, #4]
 8c4:	e59f1190 	ldr	r1, [pc, #400]	; a5c <cleanFlushCache+0x6c>
 8c8:	e5801008 	str	r1, [r0, #8]
 8cc:	e59f118c 	ldr	r1, [pc, #396]	; a60 <cleanFlushCache+0x70>
 8d0:	e580100c 	str	r1, [r0, #12]
 8d4:	e3a014ff 	mov	r1, #-16777216	; 0xff000000
 8d8:	e5801014 	str	r1, [r0, #20]
 8dc:	e59f1144 	ldr	r1, [pc, #324]	; a28 <cleanFlushCache+0x38>
 8e0:	e5801030 	str	r1, [r0, #48]
 8e4:	e59f1140 	ldr	r1, [pc, #320]	; a2c <cleanFlushCache+0x3c>
 8e8:	e5801034 	str	r1, [r0, #52]
 8ec:	e59f113c 	ldr	r1, [pc, #316]	; a30 <cleanFlushCache+0x40>
 8f0:	e5801038 	str	r1, [r0, #56]
 8f4:	e59f1138 	ldr	r1, [pc, #312]	; a34 <cleanFlushCache+0x44>
 8f8:	e580103c 	str	r1, [r0, #60]
 8fc:	e3a01407 	mov	r1, #117440512	; 0x7000000
 900:	e5801010 	str	r1, [r0, #16]
 904:	e3a01401 	mov	r1, #16777216	; 0x1000000
 908:	e5801010 	str	r1, [r0, #16]
 90c:	e3a01802 	mov	r1, #131072	; 0x20000
 910:	e5801010 	str	r1, [r0, #16]
 914:	e3a01803 	mov	r1, #196608	; 0x30000
 918:	e5801010 	str	r1, [r0, #16]
 91c:	e3a01b41 	mov	r1, #66560	; 0x10400
 920:	e5801010 	str	r1, [r0, #16]
 924:	e59f110c 	ldr	r1, [pc, #268]	; a38 <cleanFlushCache+0x48>
 928:	e5801010 	str	r1, [r0, #16]
 92c:	e3a01401 	mov	r1, #16777216	; 0x1000000
 930:	e5801010 	str	r1, [r0, #16]
 934:	e3a01405 	mov	r1, #83886080	; 0x5000000
 938:	e5801010 	str	r1, [r0, #16]
 93c:	e3a01405 	mov	r1, #83886080	; 0x5000000
 940:	e5801010 	str	r1, [r0, #16]
 944:	e59f10f0 	ldr	r1, [pc, #240]	; a3c <cleanFlushCache+0x4c>
 948:	e5801010 	str	r1, [r0, #16]
 94c:	e59f10ec 	ldr	r1, [pc, #236]	; a40 <cleanFlushCache+0x50>
 950:	e5801010 	str	r1, [r0, #16]
 954:	e3a01b41 	mov	r1, #66560	; 0x10400
 958:	e5801010 	str	r1, [r0, #16]
 95c:	e3a01671 	mov	r1, #118489088	; 0x7100000
 960:	e5801010 	str	r1, [r0, #16]
 964:	e3a01611 	mov	r1, #17825792	; 0x1100000
 968:	e5801010 	str	r1, [r0, #16]
 96c:	e3a01812 	mov	r1, #1179648	; 0x120000
 970:	e5801010 	str	r1, [r0, #16]
 974:	e3a01813 	mov	r1, #1245184	; 0x130000
 978:	e5801010 	str	r1, [r0, #16]
 97c:	e59f10e0 	ldr	r1, [pc, #224]	; a64 <cleanFlushCache+0x74>
 980:	e5801010 	str	r1, [r0, #16]
 984:	e59f10bc 	ldr	r1, [pc, #188]	; a48 <cleanFlushCache+0x58>
 988:	e5801010 	str	r1, [r0, #16]
 98c:	e3a01611 	mov	r1, #17825792	; 0x1100000
 990:	e5801010 	str	r1, [r0, #16]
 994:	e3a01651 	mov	r1, #84934656	; 0x5100000
 998:	e5801010 	str	r1, [r0, #16]
 99c:	e3a01651 	mov	r1, #84934656	; 0x5100000
 9a0:	e5801010 	str	r1, [r0, #16]
 9a4:	e59f10a0 	ldr	r1, [pc, #160]	; a4c <cleanFlushCache+0x5c>
 9a8:	e5801010 	str	r1, [r0, #16]
 9ac:	e59f109c 	ldr	r1, [pc, #156]	; a50 <cleanFlushCache+0x60>
 9b0:	e5801010 	str	r1, [r0, #16]
 9b4:	e59f1088 	ldr	r1, [pc, #136]	; a44 <cleanFlushCache+0x54>
 9b8:	e5801010 	str	r1, [r0, #16]
 9bc:	e59f1090 	ldr	r1, [pc, #144]	; a54 <cleanFlushCache+0x64>
 9c0:	e5801000 	str	r1, [r0]
 9c4:	e3e01cff 	mvn	r1, #65280	; 0xff00
 9c8:	e5801028 	str	r1, [r0, #40]
 9cc:	e59f1048 	ldr	r1, [pc, #72]	; a1c <cleanFlushCache+0x2c>
 9d0:	e5801004 	str	r1, [r0, #4]
 9d4:	e1a0f00e 	mov	pc, lr

000009d8 <cleanDCache>:
 9d8:	ee17ff7a 	mrc	15, 0, pc, cr7, cr10, {3}
 9dc:	1afffffd 	bne	9d8 <cleanDCache>
 9e0:	e1a0f00e 	mov	pc, lr

000009e4 <cleanFlushDCache>:
 9e4:	ee17ff7e 	mrc	15, 0, pc, cr7, cr14, {3}
 9e8:	1afffffd 	bne	9e4 <cleanFlushDCache>
 9ec:	e1a0f00e 	mov	pc, lr

000009f0 <cleanFlushCache>:
 9f0:	ee17ff7e 	mrc	15, 0, pc, cr7, cr14, {3}
 9f4:	1afffffd 	bne	9f0 <cleanFlushCache>
 9f8:	ee070f15 	mcr	15, 0, r0, cr7, cr5, {0}
 9fc:	e1a0f00e 	mov	pc, lr
 a00:	e0200000 	.word	0xe0200000
 a04:	0000aaaa 	.word	0x0000aaaa
 a08:	00002aaa 	.word	0x00002aaa
 a0c:	00101000 	.word	0x00101000
 a10:	00101002 	.word	0x00101002
 a14:	00101003 	.word	0x00101003
 a18:	0fff2010 	.word	0x0fff2010
 a1c:	00202400 	.word	0x00202400
 a20:	20e00323 	.word	0x20e00323
 a24:	00e00323 	.word	0x00e00323
 a28:	00000618 	.word	0x00000618
 a2c:	2b34438a 	.word	0x2b34438a
 a30:	24240000 	.word	0x24240000
 a34:	0bdc0343 	.word	0x0bdc0343
 a38:	00000542 	.word	0x00000542
 a3c:	00000442 	.word	0x00000442
 a40:	00010780 	.word	0x00010780
 a44:	00110400 	.word	0x00110400
 a48:	00100542 	.word	0x00100542
 a4c:	00100442 	.word	0x00100442
 a50:	00110780 	.word	0x00110780
 a54:	0ff02030 	.word	0x0ff02030
 a58:	f1400000 	.word	0xf1400000
 a5c:	40f00313 	.word	0x40f00313
 a60:	00f00313 	.word	0x00f00313
 a64:	00110440 	.word	0x00110440
 a68:	e1a00000 	.word	0xe1a00000
 a6c:	e1a00000 	.word	0xe1a00000
 a70:	e1a00000 	.word	0xe1a00000
 a74:	e1a00000 	.word	0xe1a00000
 a78:	e1a00000 	.word	0xe1a00000
 a7c:	e1a00000 	.word	0xe1a00000

00000a80 <v7_flush_dcache_all>:
 a80:	e3e00000 	mvn	r0, #0	; 0x0
 a84:	ee300f30 	mrc	15, 1, r0, cr0, cr0, {1}
 a88:	e2103407 	ands	r3, r0, #117440512	; 0x7000000
 a8c:	e1a03ba3 	lsr	r3, r3, #23
 a90:	0a00001b 	beq	b04 <Finished>
 a94:	e3a0a000 	mov	sl, #0	; 0x0

00000a98 <Loop1>:
 a98:	e08a20aa 	add	r2, sl, sl, lsr #1
 a9c:	e1a01230 	lsr	r1, r0, r2
 aa0:	e2011007 	and	r1, r1, #7	; 0x7
 aa4:	e3510002 	cmp	r1, #2	; 0x2
 aa8:	ba000012 	blt	af8 <Skip>
 aac:	ee40af10 	mcr	15, 2, sl, cr0, cr0, {0}
 ab0:	e3a01000 	mov	r1, #0	; 0x0
 ab4:	ee071f95 	mcr	15, 0, r1, cr7, cr5, {4}
 ab8:	ee301f10 	mrc	15, 1, r1, cr0, cr0, {0}
 abc:	e2012007 	and	r2, r1, #7	; 0x7
 ac0:	e2822004 	add	r2, r2, #4	; 0x4
 ac4:	e59f40dc 	ldr	r4, [pc, #220]	; ba8 <CoInvalidateDCacheIndex+0x8>
 ac8:	e01441a1 	ands	r4, r4, r1, lsr #3
 acc:	e16f5f14 	clz	r5, r4
 ad0:	e59f70d4 	ldr	r7, [pc, #212]	; bac <CoInvalidateDCacheIndex+0xc>
 ad4:	e01776a1 	ands	r7, r7, r1, lsr #13

00000ad8 <Loop2>:
 ad8:	e1a09004 	mov	r9, r4

00000adc <Loop3>:
 adc:	e18ab519 	orr	fp, sl, r9, lsl r5
 ae0:	e18bb217 	orr	fp, fp, r7, lsl r2
 ae4:	ee07bf56 	mcr	15, 0, fp, cr7, cr6, {2}
 ae8:	e2599001 	subs	r9, r9, #1	; 0x1
 aec:	aafffffa 	bge	adc <Loop3>
 af0:	e2577001 	subs	r7, r7, #1	; 0x1
 af4:	aafffff7 	bge	ad8 <Loop2>

00000af8 <Skip>:
 af8:	e28aa002 	add	sl, sl, #2	; 0x2
 afc:	e153000a 	cmp	r3, sl
 b00:	caffffe4 	bgt	a98 <Loop1>

00000b04 <Finished>:
 b04:	e1a0f00e 	mov	pc, lr
 b08:	e1a00000 	nop			(mov r0,r0)
 b0c:	e1a00000 	nop			(mov r0,r0)
 b10:	e1a00000 	nop			(mov r0,r0)
 b14:	e1a00000 	nop			(mov r0,r0)
 b18:	e1a00000 	nop			(mov r0,r0)
 b1c:	e1a00000 	nop			(mov r0,r0)

00000b20 <disable_l2cache>:
 b20:	ee110f30 	mrc	15, 0, r0, cr1, cr0, {1}
 b24:	e3c00002 	bic	r0, r0, #2	; 0x2
 b28:	ee010f30 	mcr	15, 0, r0, cr1, cr0, {1}
 b2c:	e1a0f00e 	mov	pc, lr
 b30:	e1a00000 	nop			(mov r0,r0)
 b34:	e1a00000 	nop			(mov r0,r0)
 b38:	e1a00000 	nop			(mov r0,r0)
 b3c:	e1a00000 	nop			(mov r0,r0)

00000b40 <enable_l2cache>:
 b40:	ee110f30 	mrc	15, 0, r0, cr1, cr0, {1}
 b44:	e3800002 	orr	r0, r0, #2	; 0x2
 b48:	ee010f30 	mcr	15, 0, r0, cr1, cr0, {1}
 b4c:	e1a0f00e 	mov	pc, lr
 b50:	e1a00000 	nop			(mov r0,r0)
 b54:	e1a00000 	nop			(mov r0,r0)
 b58:	e1a00000 	nop			(mov r0,r0)
 b5c:	e1a00000 	nop			(mov r0,r0)

00000b60 <set_l2cache_auxctrl>:
 b60:	e3a00000 	mov	r0, #0	; 0x0
 b64:	ee290f50 	mcr	15, 1, r0, cr9, cr0, {2}
 b68:	e1a0f00e 	mov	pc, lr
 b6c:	e1a00000 	nop			(mov r0,r0)
 b70:	e1a00000 	nop			(mov r0,r0)
 b74:	e1a00000 	nop			(mov r0,r0)
 b78:	e1a00000 	nop			(mov r0,r0)
 b7c:	e1a00000 	nop			(mov r0,r0)

00000b80 <set_l2cache_auxctrl_cycle>:
 b80:	ee390f50 	mrc	15, 1, r0, cr9, cr0, {2}
 b84:	e3c00202 	bic	r0, r0, #536870912	; 0x20000000
 b88:	e3c00602 	bic	r0, r0, #2097152	; 0x200000
 b8c:	e3c00d07 	bic	r0, r0, #448	; 0x1c0
 b90:	e3c00007 	bic	r0, r0, #7	; 0x7
 b94:	ee290f50 	mcr	15, 1, r0, cr9, cr0, {2}
 b98:	e1a0f00e 	mov	pc, lr
 b9c:	e1a00000 	nop			(mov r0,r0)

00000ba0 <CoInvalidateDCacheIndex>:
 ba0:	ee070f56 	mcr	15, 0, r0, cr7, cr6, {2}
 ba4:	e1a0f00e 	mov	pc, lr
 ba8:	000003ff 	.word	0x000003ff
 bac:	00007fff 	.word	0x00007fff
 bb0:	e1a00000 	.word	0xe1a00000
 bb4:	e1a00000 	.word	0xe1a00000
 bb8:	e1a00000 	.word	0xe1a00000
 bbc:	e1a00000 	.word	0xe1a00000
Disassembly of section .text.copy_uboot_to_ram:

00000bc0 <copy_uboot_to_ram>:
 bc0:	e59f3050 	ldr	r3, [pc, #80]	; c18 <copy_uboot_to_ram+0x58>
 bc4:	e92d4007 	push	{r0, r1, r2, lr}
 bc8:	e5932488 	ldr	r2, [r3, #1160]
 bcc:	e593cf98 	ldr	ip, [r3, #3992]
 bd0:	e35204eb 	cmp	r2, #-352321536	; 0xeb000000
 bd4:	03a00000 	moveq	r0, #0	; 0x0
 bd8:	058d0000 	streq	r0, [sp]
 bdc:	0a000005 	beq	bf8 <copy_uboot_to_ram+0x38>
 be0:	e59f3034 	ldr	r3, [pc, #52]	; c1c <copy_uboot_to_ram+0x5c>
 be4:	e1520003 	cmp	r2, r3
 be8:	1a000009 	bne	c14 <copy_uboot_to_ram+0x54>
 bec:	e3a03000 	mov	r3, #0	; 0x0
 bf0:	e58d3000 	str	r3, [sp]
 bf4:	e3a00002 	mov	r0, #2	; 0x2
 bf8:	e3a01031 	mov	r1, #49	; 0x31
 bfc:	e3a02b01 	mov	r2, #1024	; 0x400
 c00:	e59f3018 	ldr	r3, [pc, #24]	; c20 <copy_uboot_to_ram+0x60>
 c04:	e12fff3c 	blx	ip
 c08:	e3500000 	cmp	r0, #0	; 0x0
 c0c:	1a000000 	bne	c14 <copy_uboot_to_ram+0x54>
 c10:	eafffffe 	b	c10 <copy_uboot_to_ram+0x50>
 c14:	e8bd800e 	pop	{r1, r2, r3, pc}
 c18:	d0037000 	.word	0xd0037000
 c1c:	eb200000 	.word	0xeb200000
 c20:	23e00000 	.word	0x23e00000
Disassembly of section .text.board_init_f:

00000c24 <board_init_f>:
 c24:	ebffffe5 	bl	bc0 <copy_uboot_to_ram>
 c28:	e59f3000 	ldr	r3, [pc, #0]	; c30 <board_init_f+0xc>
 c2c:	e12fff33 	blx	r3
 c30:	23e00000 	.word	0x23e00000
Disassembly of section .text.board_init_r:

00000c34 <board_init_r>:
 c34:	eafffffe 	b	c34 <board_init_r>
Disassembly of section .text.save_boot_params:

00000c38 <save_boot_params>:
 c38:	e12fff1e 	bx	lr
Disassembly of section .text.copy_uboot_to_ram_nand:

00000c3c <copy_uboot_to_ram_nand>:
 c3c:	e59f2124 	ldr	r2, [pc, #292]	; d68 <copy_uboot_to_ram_nand+0x12c>
 c40:	e92d44f3 	push	{r0, r1, r4, r5, r6, r7, sl, lr}
 c44:	e5923004 	ldr	r3, [r2, #4]
 c48:	e59f411c 	ldr	r4, [pc, #284]	; d6c <copy_uboot_to_ram_nand+0x130>
 c4c:	e3833001 	orr	r3, r3, #1	; 0x1
 c50:	e5823004 	str	r3, [r2, #4]
 c54:	e5923004 	ldr	r3, [r2, #4]
 c58:	e3c33002 	bic	r3, r3, #2	; 0x2
 c5c:	e5823004 	str	r3, [r2, #4]
 c60:	e3a03090 	mov	r3, #144	; 0x90
 c64:	e5823008 	str	r3, [r2, #8]
 c68:	e3a03000 	mov	r3, #0	; 0x0
 c6c:	e582300c 	str	r3, [r2, #12]
 c70:	e5d23010 	ldrb	r3, [r2, #16]
 c74:	e20330ff 	and	r3, r3, #255	; 0xff
 c78:	e5cd3007 	strb	r3, [sp, #7]
 c7c:	e5d23010 	ldrb	r3, [r2, #16]
 c80:	e20330ff 	and	r3, r3, #255	; 0xff
 c84:	e5cd3007 	strb	r3, [sp, #7]
 c88:	e5dd3007 	ldrb	r3, [sp, #7]
 c8c:	e3530081 	cmp	r3, #129	; 0x81
 c90:	33a02009 	movcc	r2, #9	; 0x9
 c94:	23a0200b 	movcs	r2, #11	; 0xb
 c98:	e3a03001 	mov	r3, #1	; 0x1
 c9c:	e1a0a213 	lsl	sl, r3, r2
 ca0:	e3a03a06 	mov	r3, #24576	; 0x6000
 ca4:	e1a0c253 	asr	ip, r3, r2
 ca8:	e2833a7a 	add	r3, r3, #499712	; 0x7a000
 cac:	33a06000 	movcc	r6, #0	; 0x0
 cb0:	23a06001 	movcs	r6, #1	; 0x1
 cb4:	e1a07233 	lsr	r7, r3, r2
 cb8:	ea000026 	b	d58 <copy_uboot_to_ram_nand+0x11c>
 cbc:	e59f20a4 	ldr	r2, [pc, #164]	; d68 <copy_uboot_to_ram_nand+0x12c>
 cc0:	e3a01000 	mov	r1, #0	; 0x0
 cc4:	e5923004 	ldr	r3, [r2, #4]
 cc8:	e59f0098 	ldr	r0, [pc, #152]	; d68 <copy_uboot_to_ram_nand+0x12c>
 ccc:	e3c33002 	bic	r3, r3, #2	; 0x2
 cd0:	e5823004 	str	r3, [r2, #4]
 cd4:	e3560000 	cmp	r6, #0	; 0x0
 cd8:	e1a0342c 	lsr	r3, ip, #8
 cdc:	e5821008 	str	r1, [r2, #8]
 ce0:	e20330ff 	and	r3, r3, #255	; 0xff
 ce4:	e582100c 	str	r1, [r2, #12]
 ce8:	03a05c02 	moveq	r5, #512	; 0x200
 cec:	13a05b02 	movne	r5, #2048	; 0x800
 cf0:	1582100c 	strne	r1, [r2, #12]
 cf4:	e3560000 	cmp	r6, #0	; 0x0
 cf8:	e1a0182c 	lsr	r1, ip, #16
 cfc:	e20c20ff 	and	r2, ip, #255	; 0xff
 d00:	e580200c 	str	r2, [r0, #12]
 d04:	e20110ff 	and	r1, r1, #255	; 0xff
 d08:	e580300c 	str	r3, [r0, #12]
 d0c:	13a03030 	movne	r3, #48	; 0x30
 d10:	e580100c 	str	r1, [r0, #12]
 d14:	15803008 	strne	r3, [r0, #8]
 d18:	e59f3048 	ldr	r3, [pc, #72]	; d68 <copy_uboot_to_ram_nand+0x12c>
 d1c:	e5933028 	ldr	r3, [r3, #40]
 d20:	e3130001 	tst	r3, #1	; 0x1
 d24:	0afffffb 	beq	d18 <copy_uboot_to_ram_nand+0xdc>
 d28:	e3a02000 	mov	r2, #0	; 0x0
 d2c:	e59f1034 	ldr	r1, [pc, #52]	; d68 <copy_uboot_to_ram_nand+0x12c>
 d30:	e5d13010 	ldrb	r3, [r1, #16]
 d34:	e7c43002 	strb	r3, [r4, r2]
 d38:	e2822001 	add	r2, r2, #1	; 0x1
 d3c:	e1520005 	cmp	r2, r5
 d40:	bafffff9 	blt	d2c <copy_uboot_to_ram_nand+0xf0>
 d44:	e5913004 	ldr	r3, [r1, #4]
 d48:	e28cc001 	add	ip, ip, #1	; 0x1
 d4c:	e3833002 	orr	r3, r3, #2	; 0x2
 d50:	e5813004 	str	r3, [r1, #4]
 d54:	e084400a 	add	r4, r4, sl
 d58:	e15c0007 	cmp	ip, r7
 d5c:	3affffd6 	bcc	cbc <copy_uboot_to_ram_nand+0x80>
 d60:	e3a00000 	mov	r0, #0	; 0x0
 d64:	e8bd84fc 	pop	{r2, r3, r4, r5, r6, r7, sl, pc}
 d68:	b0e00000 	.word	0xb0e00000
 d6c:	23e00000 	.word	0x23e00000
Disassembly of section .text.board_init_f_nand:

00000d70 <board_init_f_nand>:
 d70:	ebffffb1 	bl	c3c <copy_uboot_to_ram_nand>
 d74:	e59f3000 	ldr	r3, [pc, #0]	; d7c <board_init_f_nand+0xc>
 d78:	e12fff33 	blx	r3
 d7c:	23e00000 	.word	0x23e00000